; ModuleID = '40/3140.c'
source_filename = "40/3140.c"
target datalayout = "e-m:e-p270:32:32-p271:32:32-p272:64:64-i64:64-f80:128-n8:16:32:64-S128"
target triple = "x86_64-pc-linux-gnu"

@.str = private unnamed_addr constant [16 x i8] c"%lf%lf%lf%lf%lf\00", align 1
@.str.1 = private unnamed_addr constant [14 x i8] c"Invalid input\00", align 1
@.str.2 = private unnamed_addr constant [6 x i8] c"%.4f\0A\00", align 1

; Function Attrs: noinline nounwind uwtable
define dso_local i32 @main() #0 {
  %1 = alloca i32, align 4
  %2 = alloca double, align 8
  %3 = alloca double, align 8
  %4 = alloca double, align 8
  %5 = alloca double, align 8
  %6 = alloca double, align 8
  %7 = alloca double, align 8
  %8 = alloca double, align 8
  store i32 0, i32* %1, align 4
  %9 = call i32 (i8*, ...) @__isoc99_scanf(i8* getelementptr inbounds ([16 x i8], [16 x i8]* @.str, i64 0, i64 0), double* %2, double* %3, double* %4, double* %5, double* %6)
  %10 = load double, double* %6, align 8
  %11 = fdiv double %10, 3.600000e+02
  store double %11, double* %6, align 8
  %12 = load double, double* %6, align 8
  %13 = fmul double %12, 0x400921FB4D12D84A
  store double %13, double* %6, align 8
  %14 = load double, double* %2, align 8
  %15 = load double, double* %3, align 8
  %16 = fadd double %14, %15
  %17 = load double, double* %4, align 8
  %18 = fadd double %16, %17
  %19 = load double, double* %5, align 8
  %20 = fadd double %18, %19
  %21 = fdiv double %20, 2.000000e+00
  store double %21, double* %7, align 8
  %22 = load double, double* %7, align 8
  %23 = load double, double* %2, align 8
  %24 = fsub double %22, %23
  %25 = load double, double* %7, align 8
  %26 = load double, double* %3, align 8
  %27 = fsub double %25, %26
  %28 = fmul double %24, %27
  %29 = load double, double* %7, align 8
  %30 = load double, double* %4, align 8
  %31 = fsub double %29, %30
  %32 = fmul double %28, %31
  %33 = load double, double* %7, align 8
  %34 = load double, double* %5, align 8
  %35 = fsub double %33, %34
  %36 = fmul double %32, %35
  %37 = load double, double* %2, align 8
  %38 = load double, double* %3, align 8
  %39 = fmul double %37, %38
  %40 = load double, double* %4, align 8
  %41 = fmul double %39, %40
  %42 = load double, double* %5, align 8
  %43 = fmul double %41, %42
  %44 = load double, double* %6, align 8
  %45 = call double @cos(double %44) #3
  %46 = fmul double %43, %45
  %47 = load double, double* %6, align 8
  %48 = call double @cos(double %47) #3
  %49 = fmul double %46, %48
  %50 = fsub double %36, %49
  store double %50, double* %7, align 8
  %51 = load double, double* %7, align 8
  %52 = fcmp olt double %51, 0.000000e+00
  br i1 %52, label %53, label %55

53:                                               ; preds = %0
  %54 = call i32 (i8*, ...) @printf(i8* getelementptr inbounds ([14 x i8], [14 x i8]* @.str.1, i64 0, i64 0))
  br label %97

55:                                               ; preds = %0
  %56 = load double, double* %2, align 8
  %57 = load double, double* %3, align 8
  %58 = fadd double %56, %57
  %59 = load double, double* %4, align 8
  %60 = fadd double %58, %59
  %61 = load double, double* %5, align 8
  %62 = fadd double %60, %61
  %63 = fdiv double %62, 2.000000e+00
  store double %63, double* %7, align 8
  %64 = load double, double* %7, align 8
  %65 = load double, double* %2, align 8
  %66 = fsub double %64, %65
  %67 = load double, double* %7, align 8
  %68 = load double, double* %3, align 8
  %69 = fsub double %67, %68
  %70 = fmul double %66, %69
  %71 = load double, double* %7, align 8
  %72 = load double, double* %4, align 8
  %73 = fsub double %71, %72
  %74 = fmul double %70, %73
  %75 = load double, double* %7, align 8
  %76 = load double, double* %5, align 8
  %77 = fsub double %75, %76
  %78 = fmul double %74, %77
  %79 = load double, double* %2, align 8
  %80 = load double, double* %3, align 8
  %81 = fmul double %79, %80
  %82 = load double, double* %4, align 8
  %83 = fmul double %81, %82
  %84 = load double, double* %5, align 8
  %85 = fmul double %83, %84
  %86 = load double, double* %6, align 8
  %87 = call double @cos(double %86) #3
  %88 = fmul double %85, %87
  %89 = load double, double* %6, align 8
  %90 = call double @cos(double %89) #3
  %91 = fmul double %88, %90
  %92 = fsub double %78, %91
  store double %92, double* %7, align 8
  %93 = load double, double* %7, align 8
  %94 = call double @sqrt(double %93) #3
  store double %94, double* %7, align 8
  %95 = load double, double* %7, align 8
  %96 = call i32 (i8*, ...) @printf(i8* getelementptr inbounds ([6 x i8], [6 x i8]* @.str.2, i64 0, i64 0), double %95)
  br label %97

97:                                               ; preds = %55, %53
  ret i32 0
}

declare dso_local i32 @__isoc99_scanf(i8*, ...) #1

; Function Attrs: nounwind
declare dso_local double @cos(double) #2

declare dso_local i32 @printf(i8*, ...) #1

; Function Attrs: nounwind
declare dso_local double @sqrt(double) #2


!llvm.module.flags = !{!0}
!llvm.ident = !{!1}

!0 = !{i32 1, !"wchar_size", i32 4}
!1 = !{!"clang version 10.0.0-4ubuntu1 "}
